target datalayout = "e-m:e-p270:32:32-p271:32:32-p272:64:64-i64:64-i128:128-f80:128-n8:16:32:64-S128"
target triple = "x86_64-unknown-linux-gnu"

%"class.cvc5::internal::String" = type { %"class.std::vector" }
%"class.std::vector" = type { %"struct.std::_Vector_base" }
%"struct.std::_Vector_base" = type { %"struct.std::_Vector_base<unsigned int, std::allocator<unsigned int>>::_Vector_impl" }
%"struct.std::_Vector_base<unsigned int, std::allocator<unsigned int>>::_Vector_impl" = type { %"struct.std::_Vector_base<unsigned int, std::allocator<unsigned int>>::_Vector_impl_data" }
%"struct.std::_Vector_base<unsigned int, std::allocator<unsigned int>>::_Vector_impl_data" = type { ptr, ptr, ptr }

; Function Attrs: mustprogress nounwind uwtable
define linkonce_odr hidden noundef i64 @_ZNKSt6vectorIjSaIjEE4sizeEv(ptr noundef nonnull align 8 dereferenceable(24) %this) #5 comdat align 2 {
entry:
  %this.addr = alloca ptr, align 8
  store ptr %this, ptr %this.addr, align 8
  %this1 = load ptr, ptr %this.addr, align 8
  %_M_impl = getelementptr inbounds %"struct.std::_Vector_base", ptr %this1, i32 0, i32 0
  %_M_finish = getelementptr inbounds %"struct.std::_Vector_base<unsigned int, std::allocator<unsigned int>>::_Vector_impl_data", ptr %_M_impl, i32 0, i32 1
  %0 = load ptr, ptr %_M_finish, align 8
  %_M_impl2 = getelementptr inbounds %"struct.std::_Vector_base", ptr %this1, i32 0, i32 0
  %_M_start = getelementptr inbounds %"struct.std::_Vector_base<unsigned int, std::allocator<unsigned int>>::_Vector_impl_data", ptr %_M_impl2, i32 0, i32 0
  %1 = load ptr, ptr %_M_start, align 8
  %sub.ptr.lhs.cast = ptrtoint ptr %0 to i64
  %sub.ptr.rhs.cast = ptrtoint ptr %1 to i64
  %sub.ptr.sub = sub i64 %sub.ptr.lhs.cast, %sub.ptr.rhs.cast
  %sub.ptr.div = sdiv exact i64 %sub.ptr.sub, 4
  ret i64 %sub.ptr.div
}

; Function Attrs: mustprogress nounwind uwtable
define linkonce_odr hidden noundef nonnull align 4 dereferenceable(4) ptr @_ZNKSt6vectorIjSaIjEEixEm(ptr noundef nonnull align 8 dereferenceable(24) %this, i64 noundef %__n) #5 comdat align 2 {
entry:
  %this.addr = alloca ptr, align 8
  %__n.addr = alloca i64, align 8
  store ptr %this, ptr %this.addr, align 8
  store i64 %__n, ptr %__n.addr, align 8
  %this1 = load ptr, ptr %this.addr, align 8
  %_M_impl = getelementptr inbounds %"struct.std::_Vector_base", ptr %this1, i32 0, i32 0
  %_M_start = getelementptr inbounds %"struct.std::_Vector_base<unsigned int, std::allocator<unsigned int>>::_Vector_impl_data", ptr %_M_impl, i32 0, i32 0
  %0 = load ptr, ptr %_M_start, align 8
  %1 = load i64, ptr %__n.addr, align 8
  %add.ptr = getelementptr inbounds i32, ptr %0, i64 %1
  ret ptr %add.ptr
}

; Function Attrs: mustprogress nounwind uwtable
define linkonce_odr hidden noundef i64 @_ZNK4cvc58internal6String4sizeEv(ptr noundef nonnull align 8 dereferenceable(24) %this) #5 comdat align 2 {
entry:
  %this.addr = alloca ptr, align 8
  store ptr %this, ptr %this.addr, align 8
  %this1 = load ptr, ptr %this.addr, align 8
  %d_str = getelementptr inbounds %"class.cvc5::internal::String", ptr %this1, i32 0, i32 0
  %call = call noundef i64 @_ZNKSt6vectorIjSaIjEE4sizeEv(ptr noundef nonnull align 8 dereferenceable(24) %d_str) #3
  ret i64 %call
}

; Function Attrs: mustprogress uwtable
define hidden noundef zeroext i1 @_ZNK4cvc58internal6String7tailcmpERKS1_Ri(ptr noundef nonnull align 8 dereferenceable(24) %this, ptr noundef nonnull align 8 dereferenceable(24) %y, ptr noundef nonnull align 4 dereferenceable(4) %c) #4 align 2 {
entry:
  %retval = alloca i1, align 1
  %this.addr = alloca ptr, align 8
  %y.addr = alloca ptr, align 8
  %c.addr = alloca ptr, align 8
  %id_x = alloca i32, align 4
  %id_y = alloca i32, align 4
  store ptr %this, ptr %this.addr, align 8
  store ptr %y, ptr %y.addr, align 8
  store ptr %c, ptr %c.addr, align 8
  %this1 = load ptr, ptr %this.addr, align 8
  %call = call noundef i64 @_ZNK4cvc58internal6String4sizeEv(ptr noundef nonnull align 8 dereferenceable(24) %this1)
  %sub = sub i64 %call, 1
  %conv = trunc i64 %sub to i32
  store i32 %conv, ptr %id_x, align 4
  %0 = load ptr, ptr %y.addr, align 8
  %call2 = call noundef i64 @_ZNK4cvc58internal6String4sizeEv(ptr noundef nonnull align 8 dereferenceable(24) %0)
  %sub3 = sub i64 %call2, 1
  %conv4 = trunc i64 %sub3 to i32
  store i32 %conv4, ptr %id_y, align 4
  br label %while.cond

while.cond:                                       ; preds = %if.end, %entry
  %1 = load i32, ptr %id_x, align 4
  %cmp = icmp sge i32 %1, 0
  br i1 %cmp, label %land.rhs, label %land.end

land.rhs:                                         ; preds = %while.cond
  %2 = load i32, ptr %id_y, align 4
  %cmp5 = icmp sge i32 %2, 0
  br label %land.end

land.end:                                         ; preds = %land.rhs, %while.cond
  %3 = phi i1 [ false, %while.cond ], [ %cmp5, %land.rhs ]
  br i1 %3, label %while.body, label %while.end

while.body:                                       ; preds = %land.end
  %d_str = getelementptr inbounds %"class.cvc5::internal::String", ptr %this1, i32 0, i32 0
  %4 = load i32, ptr %id_x, align 4
  %conv6 = sext i32 %4 to i64
  %call7 = call noundef nonnull align 4 dereferenceable(4) ptr @_ZNKSt6vectorIjSaIjEEixEm(ptr noundef nonnull align 8 dereferenceable(24) %d_str, i64 noundef %conv6) #3
  %5 = load i32, ptr %call7, align 4
  %6 = load ptr, ptr %y.addr, align 8
  %d_str8 = getelementptr inbounds %"class.cvc5::internal::String", ptr %6, i32 0, i32 0
  %7 = load i32, ptr %id_y, align 4
  %conv9 = sext i32 %7 to i64
  %call10 = call noundef nonnull align 4 dereferenceable(4) ptr @_ZNKSt6vectorIjSaIjEEixEm(ptr noundef nonnull align 8 dereferenceable(24) %d_str8, i64 noundef %conv9) #3
  %8 = load i32, ptr %call10, align 4
  %cmp11 = icmp ne i32 %5, %8
  br i1 %cmp11, label %if.then, label %if.end

if.then:                                          ; preds = %while.body
  %9 = load i32, ptr %id_x, align 4
  %10 = load ptr, ptr %c.addr, align 8
  store i32 %9, ptr %10, align 4
  store i1 false, ptr %retval, align 1
  br label %return

if.end:                                           ; preds = %while.body
  %11 = load i32, ptr %id_x, align 4
  %dec = add nsw i32 %11, -1
  store i32 %dec, ptr %id_x, align 4
  %12 = load i32, ptr %id_y, align 4
  %dec12 = add nsw i32 %12, -1
  store i32 %dec12, ptr %id_y, align 4
  br label %while.cond, !llvm.loop !17

while.end:                                        ; preds = %land.end
  %13 = load i32, ptr %id_x, align 4
  %cmp13 = icmp eq i32 %13, -1
  br i1 %cmp13, label %cond.true, label %cond.false

cond.true:                                        ; preds = %while.end
  %14 = load i32, ptr %id_y, align 4
  %add = add nsw i32 %14, 1
  %sub14 = sub nsw i32 0, %add
  br label %cond.end

cond.false:                                       ; preds = %while.end
  %15 = load i32, ptr %id_x, align 4
  %add15 = add nsw i32 %15, 1
  br label %cond.end

cond.end:                                         ; preds = %cond.false, %cond.true
  %cond = phi i32 [ %sub14, %cond.true ], [ %add15, %cond.false ]
  %16 = load ptr, ptr %c.addr, align 8
  store i32 %cond, ptr %16, align 4
  store i1 true, ptr %retval, align 1
  br label %return

return:                                           ; preds = %cond.end, %if.then
  %17 = load i1, ptr %retval, align 1
  ret i1 %17
}