; Function Attrs: mustprogress nofree norecurse nosync nounwind memory(read, argmem: readwrite, inaccessiblemem: none) uwtable
define hidden noundef zeroext i1 @_ZNK4cvc58internal6String7tailcmpERKS1_Ri(ptr nocapture noundef nonnull readonly align 8 dereferenceable(24) %this, ptr nocapture noundef nonnull readonly align 8 dereferenceable(24) %y, ptr nocapture noundef nonnull writeonly align 4 dereferenceable(4) %c) local_unnamed_addr #7 align 2 {
entry:
  %_M_finish.i.i = getelementptr inbounds i8, ptr %this, i64 8
  %0 = load ptr, ptr %_M_finish.i.i, align 8
  %1 = load ptr, ptr %this, align 8
  %sub.ptr.lhs.cast.i.i = ptrtoint ptr %0 to i64
  %sub.ptr.rhs.cast.i.i = ptrtoint ptr %1 to i64
  %sub.ptr.sub.i.i = sub i64 %sub.ptr.lhs.cast.i.i, %sub.ptr.rhs.cast.i.i
  %sub.ptr.div.i.i = lshr i64 %sub.ptr.sub.i.i, 2
  %_M_finish.i.i11 = getelementptr inbounds i8, ptr %y, i64 8
  %2 = load ptr, ptr %_M_finish.i.i11, align 8
  %3 = load ptr, ptr %y, align 8
  %sub.ptr.lhs.cast.i.i12 = ptrtoint ptr %2 to i64
  %sub.ptr.rhs.cast.i.i13 = ptrtoint ptr %3 to i64
  %sub.ptr.sub.i.i14 = sub i64 %sub.ptr.lhs.cast.i.i12, %sub.ptr.rhs.cast.i.i13
  %sub.ptr.div.i.i15 = lshr i64 %sub.ptr.sub.i.i14, 2
  %4 = and i64 %sub.ptr.div.i.i, 4294967295
  %5 = and i64 %sub.ptr.div.i.i15, 4294967295
  br label %while.cond

while.cond:                                       ; preds = %while.body, %entry
  %indvars.iv27 = phi i64 [ %indvars.iv.next28, %while.body ], [ %5, %entry ]
  %indvars.iv = phi i64 [ %indvars.iv.next, %while.body ], [ %4, %entry ]
  %indvars.iv.next28 = add nsw i64 %indvars.iv27, -1
  %indvars.iv.next = add nsw i64 %indvars.iv, -1
  %indvars = trunc i64 %indvars.iv.next to i32
  %cmp = icmp slt i32 %indvars, 0
  %6 = and i64 %indvars.iv.next28, 2147483648
  %cmp5 = icmp ne i64 %6, 0
  %.not = select i1 %cmp, i1 true, i1 %cmp5
  br i1 %.not, label %while.end, label %while.body

while.body:                                       ; preds = %while.cond
  %conv6 = and i64 %indvars.iv.next, 2147483647
  %add.ptr.i = getelementptr inbounds i32, ptr %1, i64 %conv6
  %7 = load i32, ptr %add.ptr.i, align 4
  %conv9 = and i64 %indvars.iv.next28, 2147483647
  %add.ptr.i16 = getelementptr inbounds i32, ptr %3, i64 %conv9
  %8 = load i32, ptr %add.ptr.i16, align 4
  %cmp11.not = icmp eq i32 %7, %8
  br i1 %cmp11.not, label %while.cond, label %return, !llvm.loop !36

while.end:                                        ; preds = %while.cond
  %9 = trunc i64 %indvars.iv27 to i32
  %10 = trunc i64 %indvars.iv to i32
  %cmp13 = icmp eq i32 %10, 0
  %sub14 = sub nsw i32 0, %9
  %cond = select i1 %cmp13, i32 %sub14, i32 %10
  br label %return

return:                                           ; preds = %while.body, %while.end
  %storemerge = phi i32 [ %cond, %while.end ], [ %indvars, %while.body ]
  store i32 %storemerge, ptr %c, align 4
  ret i1 %.not
}